target datalayout = "e-m:e-p270:32:32-p271:32:32-p272:64:64-i64:64-i128:128-f80:128-n8:16:32:64-S128"
target triple = "x86_64-pc-linux-gnu"

%"class.llvm::SmallVectorBase" = type { ptr, i32, i32 }
%"struct.llvm::AnalysisKey" = type { [8 x i8] }
%"class.llvm::JumpThreadingPass" = type { ptr, ptr, ptr, ptr, ptr, ptr, %"class.std::unique_ptr", %"class.std::optional", %"class.std::optional.16", i8, i8, %"class.llvm::SmallSet", i32, i32 }
%"class.std::unique_ptr" = type { %"struct.std::__uniq_ptr_data" }
%"struct.std::__uniq_ptr_data" = type { %"class.std::__uniq_ptr_impl" }
%"class.std::__uniq_ptr_impl" = type { %"class.std::tuple" }
%"class.std::tuple" = type { %"struct.std::_Tuple_impl" }
%"struct.std::_Tuple_impl" = type { %"struct.std::_Head_base.15" }
%"struct.std::_Head_base.15" = type { ptr }
%"class.std::optional" = type { %"struct.std::_Optional_base" }
%"struct.std::_Optional_base" = type { %"struct.std::_Optional_payload" }
%"struct.std::_Optional_payload" = type { %"struct.std::_Optional_payload_base.base", [7 x i8] }
%"struct.std::_Optional_payload_base.base" = type <{ %"union.std::_Optional_payload_base<llvm::BlockFrequencyInfo *>::_Storage", i8 }>
%"union.std::_Optional_payload_base<llvm::BlockFrequencyInfo *>::_Storage" = type { ptr }
%"class.std::optional.16" = type { %"struct.std::_Optional_base.17" }
%"struct.std::_Optional_base.17" = type { %"struct.std::_Optional_payload.19" }
%"struct.std::_Optional_payload.19" = type { %"struct.std::_Optional_payload_base.base.21", [7 x i8] }
%"struct.std::_Optional_payload_base.base.21" = type <{ %"union.std::_Optional_payload_base<llvm::BranchProbabilityInfo *>::_Storage", i8 }>
%"union.std::_Optional_payload_base<llvm::BranchProbabilityInfo *>::_Storage" = type { ptr }
%"class.llvm::SmallSet" = type { %"class.llvm::SmallVector.24", %"class.std::set" }
%"class.llvm::SmallVector.24" = type { %"class.llvm::SmallVectorImpl.25", %"struct.llvm::SmallVectorStorage.28" }
%"class.llvm::SmallVectorImpl.25" = type { %"class.llvm::SmallVectorTemplateBase.26" }
%"class.llvm::SmallVectorTemplateBase.26" = type { %"class.llvm::SmallVectorTemplateCommon.27" }
%"class.llvm::SmallVectorTemplateCommon.27" = type { %"class.llvm::SmallVectorBase" }
%"struct.llvm::SmallVectorStorage.28" = type { [128 x i8] }
%"class.std::set" = type { %"class.std::_Rb_tree" }
%"class.std::_Rb_tree" = type { %"struct.std::_Rb_tree<llvm::AssertingVH<const llvm::BasicBlock>, llvm::AssertingVH<const llvm::BasicBlock>, std::_Identity<llvm::AssertingVH<const llvm::BasicBlock>>, std::less<llvm::AssertingVH<const llvm::BasicBlock>>>::_Rb_tree_impl" }
%"struct.std::_Rb_tree<llvm::AssertingVH<const llvm::BasicBlock>, llvm::AssertingVH<const llvm::BasicBlock>, std::_Identity<llvm::AssertingVH<const llvm::BasicBlock>>, std::less<llvm::AssertingVH<const llvm::BasicBlock>>>::_Rb_tree_impl" = type { [8 x i8], %"struct.std::_Rb_tree_header" }
%"struct.std::_Rb_tree_header" = type { %"struct.std::_Rb_tree_node_base", i64 }
%"struct.std::_Rb_tree_node_base" = type { i32, ptr, ptr, ptr }
%"struct.llvm::detail::AnalysisResultConcept" = type { ptr }
%"struct.llvm::detail::AnalysisResultModel.613" = type { %"struct.llvm::detail::AnalysisResultConcept", %"class.llvm::BranchProbabilityInfo" }
%"class.llvm::BranchProbabilityInfo" = type { %"class.llvm::DenseSet", %"class.llvm::DenseMap.243", ptr, ptr, %"class.std::unique_ptr.246", %"class.llvm::SmallDenseMap", %"class.llvm::SmallDenseMap.255" }
%"class.llvm::DenseSet" = type { %"class.llvm::detail::DenseSetImpl" }
%"class.llvm::detail::DenseSetImpl" = type { %"class.llvm::DenseMap.240" }
%"class.llvm::DenseMap.240" = type <{ ptr, i32, i32, i32, [4 x i8] }>
%"class.llvm::DenseMap.243" = type <{ ptr, i32, i32, i32, [4 x i8] }>
%"class.std::unique_ptr.246" = type { %"struct.std::__uniq_ptr_data.247" }
%"struct.std::__uniq_ptr_data.247" = type { %"class.std::__uniq_ptr_impl.248" }
%"class.std::__uniq_ptr_impl.248" = type { %"class.std::tuple.249" }
%"class.std::tuple.249" = type { %"struct.std::_Tuple_impl.250" }
%"struct.std::_Tuple_impl.250" = type { %"struct.std::_Head_base.253" }
%"struct.std::_Head_base.253" = type { ptr }
%"class.llvm::SmallDenseMap" = type { i32, i32, %"struct.llvm::AlignedCharArrayUnion" }
%"struct.llvm::AlignedCharArrayUnion" = type { [64 x i8] }
%"class.llvm::SmallDenseMap.255" = type { i32, i32, %"struct.llvm::AlignedCharArrayUnion.257" }
%"struct.llvm::AlignedCharArrayUnion.257" = type { [96 x i8] }
%"struct.std::_Optional_payload_base.20" = type <{ %"union.std::_Optional_payload_base<llvm::BranchProbabilityInfo *>::_Storage", i8, [7 x i8] }>

@_ZN4llvm25BranchProbabilityAnalysis3KeyE = external global %"struct.llvm::AnalysisKey", align 8

; Function Attrs: mustprogress nounwind uwtable
define linkonce_odr hidden void @_ZNSt22_Optional_payload_baseIPN4llvm21BranchProbabilityInfoEE8_StorageIS2_Lb1EEC2IJS2_EEESt10in_place_tDpOT_(ptr noundef nonnull align 8 dereferenceable(8) %0, ptr noundef nonnull align 8 dereferenceable(8) %1) unnamed_addr #1 comdat align 2 {
  %3 = alloca ptr, align 8
  %4 = alloca ptr, align 8
  store ptr %0, ptr %3, align 8
  store ptr %1, ptr %4, align 8
  %5 = load ptr, ptr %3, align 8
  %6 = load ptr, ptr %4, align 8
  %7 = load ptr, ptr %6, align 8
  store ptr %7, ptr %5, align 8
  ret void
}

; Function Attrs: mustprogress nounwind uwtable
define linkonce_odr hidden void @_ZNSt22_Optional_payload_baseIPN4llvm21BranchProbabilityInfoEEC2IJS2_EEESt10in_place_tDpOT_(ptr noundef nonnull align 8 dereferenceable(9) %0, ptr noundef nonnull align 8 dereferenceable(8) %1) unnamed_addr #1 comdat align 2 {
  %3 = alloca ptr, align 8
  %4 = alloca ptr, align 8
  store ptr %0, ptr %3, align 8
  store ptr %1, ptr %4, align 8
  %5 = load ptr, ptr %3, align 8
  %6 = getelementptr inbounds nuw %"struct.std::_Optional_payload_base.20", ptr %5, i32 0, i32 0
  %7 = load ptr, ptr %4, align 8
  call void @_ZNSt22_Optional_payload_baseIPN4llvm21BranchProbabilityInfoEE8_StorageIS2_Lb1EEC2IJS2_EEESt10in_place_tDpOT_(ptr noundef nonnull align 8 dereferenceable(8) %6, ptr noundef nonnull align 8 dereferenceable(8) %7)
  %8 = getelementptr inbounds nuw %"struct.std::_Optional_payload_base.20", ptr %5, i32 0, i32 1
  store i8 1, ptr %8, align 8
  ret void
}

; Function Attrs: mustprogress nounwind uwtable
define linkonce_odr hidden noundef nonnull align 8 dereferenceable(8) ptr @_ZNSt22_Optional_payload_baseIPN4llvm21BranchProbabilityInfoEE6_M_getEv(ptr noundef nonnull align 8 dereferenceable(9) %0) #1 comdat align 2 {
  %2 = alloca ptr, align 8
  store ptr %0, ptr %2, align 8
  %3 = load ptr, ptr %2, align 8
  %4 = getelementptr inbounds nuw %"struct.std::_Optional_payload_base.20", ptr %3, i32 0, i32 0
  ret ptr %4
}

; Function Attrs: mustprogress nounwind uwtable
define linkonce_odr hidden void @_ZNSt17_Optional_payloadIPN4llvm21BranchProbabilityInfoELb1ELb1ELb1EECI2St22_Optional_payload_baseIS2_EIJS2_EEESt10in_place_tDpOT_(ptr noundef nonnull align 8 dereferenceable(9) %0, ptr noundef nonnull align 8 dereferenceable(8) %1) unnamed_addr #1 comdat align 2 {
  %3 = alloca ptr, align 8
  %4 = alloca ptr, align 8
  store ptr %0, ptr %3, align 8
  store ptr %1, ptr %4, align 8
  %5 = load ptr, ptr %3, align 8
  %6 = load ptr, ptr %4, align 8
  call void @_ZNSt22_Optional_payload_baseIPN4llvm21BranchProbabilityInfoEEC2IJS2_EEESt10in_place_tDpOT_(ptr noundef nonnull align 8 dereferenceable(9) %5, ptr noundef nonnull align 8 dereferenceable(8) %6)
  ret void
}

; Function Attrs: mustprogress nounwind uwtable
define linkonce_odr hidden noundef nonnull align 8 dereferenceable(8) ptr @_ZNSt19_Optional_base_implIPN4llvm21BranchProbabilityInfoESt14_Optional_baseIS2_Lb1ELb1EEE6_M_getEv(ptr noundef nonnull align 1 dereferenceable(1) %0) #1 comdat align 2 {
  %2 = alloca ptr, align 8
  store ptr %0, ptr %2, align 8
  %3 = load ptr, ptr %2, align 8
  br label %4

4:                                                ; preds = %1
  br label %5

5:                                                ; preds = %4
  %6 = getelementptr inbounds nuw %"struct.std::_Optional_base.17", ptr %3, i32 0, i32 0
  %7 = call noundef nonnull align 8 dereferenceable(8) ptr @_ZNSt22_Optional_payload_baseIPN4llvm21BranchProbabilityInfoEE6_M_getEv(ptr noundef nonnull align 8 dereferenceable(9) %6) #2
  ret ptr %7
}

; Function Attrs: mustprogress nounwind uwtable
define linkonce_odr hidden void @_ZNSt14_Optional_baseIPN4llvm21BranchProbabilityInfoELb1ELb1EEC2IJS2_ETnNSt9enable_ifIX18is_constructible_vIS2_DpT_EEbE4typeELb0EEESt10in_place_tDpOS6_(ptr noundef nonnull align 8 dereferenceable(16) %0, ptr noundef nonnull align 8 dereferenceable(8) %1) unnamed_addr #1 comdat align 2 {
  %3 = alloca ptr, align 8
  %4 = alloca ptr, align 8
  store ptr %0, ptr %3, align 8
  store ptr %1, ptr %4, align 8
  %5 = load ptr, ptr %3, align 8
  %6 = getelementptr inbounds nuw %"struct.std::_Optional_base.17", ptr %5, i32 0, i32 0
  %7 = load ptr, ptr %4, align 8
  call void @_ZNSt17_Optional_payloadIPN4llvm21BranchProbabilityInfoELb1ELb1ELb1EECI2St22_Optional_payload_baseIS2_EIJS2_EEESt10in_place_tDpOT_(ptr noundef nonnull align 8 dereferenceable(9) %6, ptr noundef nonnull align 8 dereferenceable(8) %7)
  ret void
}

; Function Attrs: mustprogress nounwind uwtable
define linkonce_odr hidden noundef ptr @_ZN4llvm17AnalysisInfoMixinINS_25BranchProbabilityAnalysisEE2IDEv() #1 comdat align 2 {
  ret ptr @_ZN4llvm25BranchProbabilityAnalysis3KeyE
}

; Function Attrs: mustprogress nounwind uwtable
define linkonce_odr hidden noundef zeroext i1 @_ZNKSt19_Optional_base_implIPN4llvm21BranchProbabilityInfoESt14_Optional_baseIS2_Lb1ELb1EEE13_M_is_engagedEv(ptr noundef nonnull align 1 dereferenceable(1) %0) #1 comdat align 2 {
  %2 = alloca ptr, align 8
  store ptr %0, ptr %2, align 8
  %3 = load ptr, ptr %2, align 8
  %4 = getelementptr inbounds nuw %"struct.std::_Optional_base.17", ptr %3, i32 0, i32 0
  %5 = getelementptr inbounds nuw %"struct.std::_Optional_payload_base.20", ptr %4, i32 0, i32 1
  %6 = load i8, ptr %5, align 8
  %7 = trunc i8 %6 to i1
  ret i1 %7
}

; Function Attrs: mustprogress nounwind uwtable
define linkonce_odr hidden noundef nonnull align 8 dereferenceable(8) ptr @_ZNRSt8optionalIPN4llvm21BranchProbabilityInfoEEdeEv(ptr noundef nonnull align 8 dereferenceable(16) %0) #1 comdat align 2 {
  %2 = alloca ptr, align 8
  store ptr %0, ptr %2, align 8
  %3 = load ptr, ptr %2, align 8
  %4 = call noundef nonnull align 8 dereferenceable(8) ptr @_ZNSt19_Optional_base_implIPN4llvm21BranchProbabilityInfoESt14_Optional_baseIS2_Lb1ELb1EEE6_M_getEv(ptr noundef nonnull align 1 dereferenceable(1) %3) #2
  ret ptr %4
}

; Function Attrs: mustprogress nounwind uwtable
define linkonce_odr hidden void @_ZNSt8optionalIPN4llvm21BranchProbabilityInfoEEC2IS2_TnNSt9enable_ifIX7__and_vISt6__not_ISt7is_sameIS3_NSt9remove_cvINSt16remove_referenceIT_E4typeEE4typeEEES6_IS7_ISt10in_place_tSE_EESt16is_constructibleIS2_JSA_EESt14is_convertibleISA_S2_EEEbE4typeELb1EEEOSA_(ptr noundef nonnull align 8 dereferenceable(16) %0, ptr noundef nonnull align 8 dereferenceable(8) %1) unnamed_addr #1 comdat align 2 {
  %3 = alloca ptr, align 8
  %4 = alloca ptr, align 8
  store ptr %0, ptr %3, align 8
  store ptr %1, ptr %4, align 8
  %5 = load ptr, ptr %3, align 8
  %6 = load ptr, ptr %4, align 8
  call void @_ZNSt14_Optional_baseIPN4llvm21BranchProbabilityInfoELb1ELb1EEC2IJS2_ETnNSt9enable_ifIX18is_constructible_vIS2_DpT_EEbE4typeELb0EEESt10in_place_tDpOS6_(ptr noundef nonnull align 8 dereferenceable(16) %5, ptr noundef nonnull align 8 dereferenceable(8) %6)
  ret void
}

; Function Attrs: mustprogress nounwind uwtable
define linkonce_odr hidden noundef ptr @_ZNK4llvm15AnalysisManagerINS_8FunctionEJEE15getCachedResultINS_25BranchProbabilityAnalysisEEEPNT_6ResultERS1_(ptr noundef nonnull align 8 dereferenceable(72) %0, ptr noundef nonnull align 8 dereferenceable(136) %1) #1 comdat align 2 {
  %3 = alloca ptr, align 8
  %4 = alloca ptr, align 8
  %5 = alloca ptr, align 8
  %6 = alloca ptr, align 8
  store ptr %0, ptr %4, align 8
  store ptr %1, ptr %5, align 8
  %7 = load ptr, ptr %4, align 8
  %8 = call noundef ptr @_ZN4llvm17AnalysisInfoMixinINS_25BranchProbabilityAnalysisEE2IDEv()
  %9 = load ptr, ptr %5, align 8
  %10 = call noundef ptr @_ZNK4llvm15AnalysisManagerINS_8FunctionEJEE19getCachedResultImplEPNS_11AnalysisKeyERS1_(ptr noundef nonnull align 8 dereferenceable(72) %7, ptr noundef %8, ptr noundef nonnull align 8 dereferenceable(136) %9)
  store ptr %10, ptr %6, align 8
  %11 = load ptr, ptr %6, align 8
  %12 = icmp ne ptr %11, null
  br i1 %12, label %14, label %13

13:                                               ; preds = %2
  store ptr null, ptr %3, align 8
  br label %17

14:                                               ; preds = %2
  %15 = load ptr, ptr %6, align 8
  %16 = getelementptr inbounds nuw %"struct.llvm::detail::AnalysisResultModel.613", ptr %15, i32 0, i32 1
  store ptr %16, ptr %3, align 8
  br label %17

17:                                               ; preds = %14, %13
  %18 = load ptr, ptr %3, align 8
  ret ptr %18
}

; Function Attrs: mustprogress nounwind uwtable
define linkonce_odr hidden noundef zeroext i1 @_ZNKSt8optionalIPN4llvm21BranchProbabilityInfoEEcvbEv(ptr noundef nonnull align 8 dereferenceable(16) %0) #1 comdat align 2 {
  %2 = alloca ptr, align 8
  store ptr %0, ptr %2, align 8
  %3 = load ptr, ptr %2, align 8
  %4 = call noundef zeroext i1 @_ZNKSt19_Optional_base_implIPN4llvm21BranchProbabilityInfoESt14_Optional_baseIS2_Lb1ELb1EEE13_M_is_engagedEv(ptr noundef nonnull align 1 dereferenceable(1) %3) #2
  ret i1 %4
}

; Function Attrs: mustprogress nounwind uwtable
define dso_local noundef ptr @_ZN4llvm17JumpThreadingPass6getBPIEv(ptr noundef nonnull align 8 dereferenceable(296) %0) #1 align 2 {
  %2 = alloca ptr, align 8
  %3 = alloca %"class.std::optional.16", align 8
  %4 = alloca ptr, align 8
  store ptr %0, ptr %2, align 8
  %5 = load ptr, ptr %2, align 8
  %6 = getelementptr inbounds nuw %"class.llvm::JumpThreadingPass", ptr %5, i32 0, i32 8
  %7 = call noundef zeroext i1 @_ZNKSt8optionalIPN4llvm21BranchProbabilityInfoEEcvbEv(ptr noundef nonnull align 8 dereferenceable(16) %6) #2
  br i1 %7, label %15, label %8

8:                                                ; preds = %1
  %9 = getelementptr inbounds nuw %"class.llvm::JumpThreadingPass", ptr %5, i32 0, i32 1
  %10 = load ptr, ptr %9, align 8
  %11 = getelementptr inbounds nuw %"class.llvm::JumpThreadingPass", ptr %5, i32 0, i32 0
  %12 = load ptr, ptr %11, align 8
  %13 = call noundef ptr @_ZNK4llvm15AnalysisManagerINS_8FunctionEJEE15getCachedResultINS_25BranchProbabilityAnalysisEEEPNT_6ResultERS1_(ptr noundef nonnull align 8 dereferenceable(72) %10, ptr noundef nonnull align 8 dereferenceable(136) %12)
  store ptr %13, ptr %4, align 8
  call void @_ZNSt8optionalIPN4llvm21BranchProbabilityInfoEEC2IS2_TnNSt9enable_ifIX7__and_vISt6__not_ISt7is_sameIS3_NSt9remove_cvINSt16remove_referenceIT_E4typeEE4typeEEES6_IS7_ISt10in_place_tSE_EESt16is_constructibleIS2_JSA_EESt14is_convertibleISA_S2_EEEbE4typeELb1EEEOSA_(ptr noundef nonnull align 8 dereferenceable(16) %3, ptr noundef nonnull align 8 dereferenceable(8) %4) #2
  %14 = getelementptr inbounds nuw %"class.llvm::JumpThreadingPass", ptr %5, i32 0, i32 8
  call void @llvm.memcpy.p0.p0.i64(ptr align 8 %14, ptr align 8 %3, i64 16, i1 false)
  br label %15

15:                                               ; preds = %8, %1
  %16 = getelementptr inbounds nuw %"class.llvm::JumpThreadingPass", ptr %5, i32 0, i32 8
  %17 = call noundef nonnull align 8 dereferenceable(8) ptr @_ZNRSt8optionalIPN4llvm21BranchProbabilityInfoEEdeEv(ptr noundef nonnull align 8 dereferenceable(16) %16) #2
  %18 = load ptr, ptr %17, align 8
  ret ptr %18
}